target datalayout = "e-m:e-p270:32:32-p271:32:32-p272:64:64-i64:64-i128:128-f80:128-n8:16:32:64-S128"
target triple = "x86_64-pc-linux-gnu"

%struct.quic_conn_id_st = type { i8, [20 x i8] }
%union.bio_addr_st = type { %struct.sockaddr_in6, [84 x i8] }
%struct.sockaddr_in6 = type { i16, i16, i32, %struct.in6_addr, i32 }
%struct.in6_addr = type { %union.anon }
%union.anon = type { [4 x i32] }
%struct.OSSL_TIME = type { i64 }
%struct.quic_channel_st = type { ptr, %struct.anon, %struct.anon.0, ptr, ptr, ptr, ptr, ptr, ptr, ptr, i64, %union.bio_addr_st, ptr, ptr, ptr, %struct.quic_txfc_st, %struct.quic_rxfc_st, [3 x %struct.quic_rxfc_st], %struct.quic_rxfc_st, %struct.quic_rxfc_st, %struct.quic_stream_map_st, %struct.ossl_statm_st, ptr, ptr, ptr, ptr, ptr, ptr, ptr, ptr, [3 x ptr], [3 x ptr], %struct.quic_conn_id_st, %struct.quic_conn_id_st, %struct.quic_conn_id_st, %struct.quic_conn_id_st, %struct.quic_conn_id_st, %struct.quic_conn_id_st, i64, i64, i64, i64, i64, i64, i64, i64, i64, i64, i8, i16, ptr, i64, i64, i64, i64, i64, i64, i64, i64, i64, i64, i64, i64, i64, %struct.quic_terminate_cause_st, %struct.OSSL_TIME, %struct.OSSL_TIME, %struct.OSSL_TIME, %struct.OSSL_TIME, %struct.OSSL_TIME, i64, i64, i64, ptr, ptr, i64, ptr }
%struct.anon = type { ptr, ptr }
%struct.anon.0 = type { ptr, ptr }
%struct.quic_txfc_st = type { ptr, i64, i64, i8 }
%struct.quic_rxfc_st = type { i64, i64, i64, i64, i64, i64, i64, %struct.OSSL_TIME, ptr, ptr, ptr, i8, i8, i8, i8 }
%struct.quic_stream_map_st = type { ptr, %struct.quic_stream_list_node_st, %struct.quic_stream_list_node_st, %struct.quic_stream_list_node_st, i64, i64, i64, i64, i64, ptr, ptr, ptr, ptr, ptr, i32 }
%struct.quic_stream_list_node_st = type { ptr, ptr }
%struct.ossl_statm_st = type { %struct.OSSL_TIME, %struct.OSSL_TIME, %struct.OSSL_TIME, %struct.OSSL_TIME, i8 }
%struct.quic_terminate_cause_st = type { i64, i64, ptr, i64, i8 }
%struct.quic_port_st = type { ptr, %struct.anon.1, ptr, ptr, ptr, ptr, ptr, ptr, %struct.ossl_list_st_ch, %struct.ossl_list_st_incoming_ch, ptr, ptr, ptr, ptr, i8, i8, i16, ptr }
%struct.anon.1 = type { ptr, ptr }
%struct.ossl_list_st_ch = type { ptr, ptr, i64 }
%struct.ossl_list_st_incoming_ch = type { ptr, ptr, i64 }
%struct.quic_engine_st = type { ptr, ptr, ptr, ptr, ptr, %struct.quic_reactor_st, %struct.ossl_list_st_port, i8 }
%struct.quic_reactor_st = type { %struct.bio_poll_descriptor_st, %struct.bio_poll_descriptor_st, %struct.OSSL_TIME, ptr, ptr, ptr, %struct.rio_notifier_st, ptr, i64, i8 }
%struct.bio_poll_descriptor_st = type { i32, %union.anon.2 }
%union.anon.2 = type { ptr }
%struct.rio_notifier_st = type { i32, i32 }
%struct.ossl_list_st_port = type { ptr, ptr, i64 }
%struct.qlog_trace_info_st = type { %struct.quic_conn_id_st, ptr, ptr, ptr, i32, ptr, ptr, i64, ptr }

; Function Attrs: nounwind uwtable
define internal ptr @ch_get_qlog(ptr noundef %0) #0 {
  %2 = alloca ptr, align 8
  %3 = alloca ptr, align 8
  %4 = alloca %struct.qlog_trace_info_st, align 8
  %5 = alloca i32, align 4
  store ptr %0, ptr %3, align 8, !tbaa !3
  call void @llvm.lifetime.start.p0(i64 88, ptr %4) #9
  call void @llvm.memset.p0.i64(ptr align 8 %4, i8 0, i64 88, i1 false)
  %6 = load ptr, ptr %3, align 8, !tbaa !3
  %7 = getelementptr inbounds nuw %struct.quic_channel_st, ptr %6, i32 0, i32 7
  %8 = load ptr, ptr %7, align 8, !tbaa !171
  %9 = icmp ne ptr %8, null
  br i1 %9, label %10, label %14

10:                                               ; preds = %1
  %11 = load ptr, ptr %3, align 8, !tbaa !3
  %12 = getelementptr inbounds nuw %struct.quic_channel_st, ptr %11, i32 0, i32 7
  %13 = load ptr, ptr %12, align 8, !tbaa !171
  store ptr %13, ptr %2, align 8
  store i32 1, ptr %5, align 4
  br label %73

14:                                               ; preds = %1
  %15 = load ptr, ptr %3, align 8, !tbaa !3
  %16 = getelementptr inbounds nuw %struct.quic_channel_st, ptr %15, i32 0, i32 72
  %17 = load i64, ptr %16, align 8
  %18 = lshr i64 %17, 41
  %19 = and i64 %18, 1
  %20 = trunc i64 %19 to i32
  %21 = icmp ne i32 %20, 0
  br i1 %21, label %23, label %22

22:                                               ; preds = %14
  store ptr null, ptr %2, align 8
  store i32 1, ptr %5, align 4
  br label %73

23:                                               ; preds = %14
  %24 = load ptr, ptr %3, align 8, !tbaa !3
  %25 = getelementptr inbounds nuw %struct.quic_channel_st, ptr %24, i32 0, i32 72
  %26 = load i64, ptr %25, align 8
  %27 = lshr i64 %26, 25
  %28 = and i64 %27, 1
  %29 = trunc i64 %28 to i32
  %30 = icmp ne i32 %29, 0
  br i1 %30, label %31, label %39

31:                                               ; preds = %23
  %32 = load ptr, ptr %3, align 8, !tbaa !3
  %33 = getelementptr inbounds nuw %struct.quic_channel_st, ptr %32, i32 0, i32 32
  %34 = getelementptr inbounds nuw %struct.quic_conn_id_st, ptr %33, i32 0, i32 0
  %35 = load i8, ptr %34, align 8, !tbaa !219
  %36 = zext i8 %35 to i32
  %37 = icmp eq i32 %36, 0
  br i1 %37, label %38, label %39

38:                                               ; preds = %31
  store ptr null, ptr %2, align 8
  store i32 1, ptr %5, align 4
  br label %73

39:                                               ; preds = %31, %23
  %40 = getelementptr inbounds nuw %struct.qlog_trace_info_st, ptr %4, i32 0, i32 0
  %41 = load ptr, ptr %3, align 8, !tbaa !3
  %42 = getelementptr inbounds nuw %struct.quic_channel_st, ptr %41, i32 0, i32 32
  call void @llvm.memcpy.p0.p0.i64(ptr align 8 %40, ptr align 8 %42, i64 21, i1 false), !tbaa.struct !88
  %43 = load ptr, ptr %3, align 8, !tbaa !3
  %44 = getelementptr inbounds nuw %struct.quic_channel_st, ptr %43, i32 0, i32 76
  %45 = load ptr, ptr %44, align 8, !tbaa !161
  %46 = getelementptr inbounds nuw %struct.qlog_trace_info_st, ptr %4, i32 0, i32 1
  store ptr %45, ptr %46, align 8, !tbaa !221
  %47 = getelementptr inbounds nuw %struct.qlog_trace_info_st, ptr %4, i32 0, i32 2
  store ptr null, ptr %47, align 8, !tbaa !223
  %48 = getelementptr inbounds nuw %struct.qlog_trace_info_st, ptr %4, i32 0, i32 3
  store ptr null, ptr %48, align 8, !tbaa !224
  %49 = load ptr, ptr %3, align 8, !tbaa !3
  %50 = getelementptr inbounds nuw %struct.quic_channel_st, ptr %49, i32 0, i32 72
  %51 = load i64, ptr %50, align 8
  %52 = lshr i64 %51, 25
  %53 = and i64 %52, 1
  %54 = trunc i64 %53 to i32
  %55 = getelementptr inbounds nuw %struct.qlog_trace_info_st, ptr %4, i32 0, i32 4
  store i32 %54, ptr %55, align 8, !tbaa !225
  %56 = getelementptr inbounds nuw %struct.qlog_trace_info_st, ptr %4, i32 0, i32 5
  store ptr @get_time, ptr %56, align 8, !tbaa !226
  %57 = load ptr, ptr %3, align 8, !tbaa !3
  %58 = getelementptr inbounds nuw %struct.qlog_trace_info_st, ptr %4, i32 0, i32 6
  store ptr %57, ptr %58, align 8, !tbaa !227
  %59 = call ptr @ossl_qlog_new_from_env(ptr noundef %4)
  %60 = load ptr, ptr %3, align 8, !tbaa !3
  %61 = getelementptr inbounds nuw %struct.quic_channel_st, ptr %60, i32 0, i32 7
  store ptr %59, ptr %61, align 8, !tbaa !171
  %62 = icmp eq ptr %59, null
  br i1 %62, label %63, label %69

63:                                               ; preds = %39
  %64 = load ptr, ptr %3, align 8, !tbaa !3
  %65 = getelementptr inbounds nuw %struct.quic_channel_st, ptr %64, i32 0, i32 72
  %66 = load i64, ptr %65, align 8
  %67 = and i64 %66, -2199023255553
  %68 = or i64 %67, 0
  store i64 %68, ptr %65, align 8
  store ptr null, ptr %2, align 8
  store i32 1, ptr %5, align 4
  br label %73

69:                                               ; preds = %39
  %70 = load ptr, ptr %3, align 8, !tbaa !3
  %71 = getelementptr inbounds nuw %struct.quic_channel_st, ptr %70, i32 0, i32 7
  %72 = load ptr, ptr %71, align 8, !tbaa !171
  store ptr %72, ptr %2, align 8
  store i32 1, ptr %5, align 4
  br label %73

73:                                               ; preds = %69, %63, %38, %22, %10
  call void @llvm.lifetime.end.p0(i64 88, ptr %4) #9
  %74 = load ptr, ptr %2, align 8
  ret ptr %74
}

; Function Attrs: nounwind uwtable
define internal void @ch_record_state_transition(ptr noundef %0, i32 noundef %1) #0 {
  %3 = alloca ptr, align 8
  %4 = alloca i32, align 4
  %5 = alloca i32, align 4
  store ptr %0, ptr %3, align 8, !tbaa !3
  store i32 %1, ptr %4, align 4, !tbaa !80
  call void @llvm.lifetime.start.p0(i64 4, ptr %5) #9
  %6 = load ptr, ptr %3, align 8, !tbaa !3
  %7 = getelementptr inbounds nuw %struct.quic_channel_st, ptr %6, i32 0, i32 72
  %8 = load i64, ptr %7, align 8
  %9 = and i64 %8, 7
  %10 = trunc i64 %9 to i32
  store i32 %10, ptr %5, align 4, !tbaa !80
  %11 = load i32, ptr %4, align 4, !tbaa !80
  %12 = load ptr, ptr %3, align 8, !tbaa !3
  %13 = getelementptr inbounds nuw %struct.quic_channel_st, ptr %12, i32 0, i32 72
  %14 = zext i32 %11 to i64
  %15 = load i64, ptr %13, align 8
  %16 = and i64 %14, 7
  %17 = and i64 %15, -8
  %18 = or i64 %17, %16
  store i64 %18, ptr %13, align 8
  %19 = load ptr, ptr %3, align 8, !tbaa !3
  %20 = call ptr @ch_get_qlog(ptr noundef %19)
  %21 = load i32, ptr %5, align 4, !tbaa !80
  %22 = load i32, ptr %4, align 4, !tbaa !80
  %23 = load ptr, ptr %3, align 8, !tbaa !3
  %24 = getelementptr inbounds nuw %struct.quic_channel_st, ptr %23, i32 0, i32 72
  %25 = load i64, ptr %24, align 8
  %26 = lshr i64 %25, 9
  %27 = and i64 %26, 1
  %28 = trunc i64 %27 to i32
  %29 = load ptr, ptr %3, align 8, !tbaa !3
  %30 = getelementptr inbounds nuw %struct.quic_channel_st, ptr %29, i32 0, i32 72
  %31 = load i64, ptr %30, align 8
  %32 = lshr i64 %31, 10
  %33 = and i64 %32, 1
  %34 = trunc i64 %33 to i32
  call void @ossl_qlog_event_connectivity_connection_state_updated(ptr noundef %20, i32 noundef %21, i32 noundef %22, i32 noundef %28, i32 noundef %34)
  call void @llvm.lifetime.end.p0(i64 4, ptr %5) #9
  ret void
}

; Function Attrs: nounwind uwtable
define internal i32 @ch_on_new_conn_common(ptr noundef %0, ptr noundef %1, ptr noundef %2, ptr noundef %3, ptr noundef %4) #0 {
  %6 = alloca i32, align 4
  %7 = alloca ptr, align 8
  %8 = alloca ptr, align 8
  %9 = alloca ptr, align 8
  %10 = alloca ptr, align 8
  %11 = alloca ptr, align 8
  store ptr %0, ptr %7, align 8, !tbaa !3
  store ptr %1, ptr %8, align 8, !tbaa !173
  store ptr %2, ptr %9, align 8, !tbaa !215
  store ptr %3, ptr %10, align 8, !tbaa !215
  store ptr %4, ptr %11, align 8, !tbaa !215
  %12 = load ptr, ptr %7, align 8, !tbaa !3
  %13 = getelementptr inbounds nuw %struct.quic_channel_st, ptr %12, i32 0, i32 11
  %14 = load ptr, ptr %8, align 8, !tbaa !173
  call void @llvm.memcpy.p0.p0.i64(ptr align 8 %13, ptr align 4 %14, i64 112, i1 false), !tbaa.struct !175
  %15 = load ptr, ptr %7, align 8, !tbaa !3
  %16 = getelementptr inbounds nuw %struct.quic_channel_st, ptr %15, i32 0, i32 32
  %17 = load ptr, ptr %10, align 8, !tbaa !215
  call void @llvm.memcpy.p0.p0.i64(ptr align 8 %16, ptr align 1 %17, i64 21, i1 false), !tbaa.struct !88
  %18 = load ptr, ptr %7, align 8, !tbaa !3
  %19 = getelementptr inbounds nuw %struct.quic_channel_st, ptr %18, i32 0, i32 37
  %20 = load ptr, ptr %9, align 8, !tbaa !215
  call void @llvm.memcpy.p0.p0.i64(ptr align 1 %19, ptr align 1 %20, i64 21, i1 false), !tbaa.struct !88
  %21 = load ptr, ptr %7, align 8, !tbaa !3
  %22 = getelementptr inbounds nuw %struct.quic_channel_st, ptr %21, i32 0, i32 33
  %23 = getelementptr inbounds nuw %struct.quic_conn_id_st, ptr %22, i32 0, i32 0
  store i8 0, ptr %23, align 1, !tbaa !217
  %24 = load ptr, ptr %11, align 8, !tbaa !215
  %25 = icmp ne ptr %24, null
  br i1 %25, label %26, label %30

26:                                               ; preds = %5
  %27 = load ptr, ptr %7, align 8, !tbaa !3
  %28 = getelementptr inbounds nuw %struct.quic_channel_st, ptr %27, i32 0, i32 33
  %29 = load ptr, ptr %11, align 8, !tbaa !215
  call void @llvm.memcpy.p0.p0.i64(ptr align 1 %28, ptr align 1 %29, i64 21, i1 false), !tbaa.struct !88
  br label %30

30:                                               ; preds = %26, %5
  %31 = load ptr, ptr %7, align 8, !tbaa !3
  %32 = getelementptr inbounds nuw %struct.quic_channel_st, ptr %31, i32 0, i32 12
  %33 = load ptr, ptr %32, align 8, !tbaa !112
  %34 = load ptr, ptr %7, align 8, !tbaa !3
  %35 = getelementptr inbounds nuw %struct.quic_channel_st, ptr %34, i32 0, i32 11
  %36 = call i32 @ossl_quic_tx_packetiser_set_peer(ptr noundef %33, ptr noundef %35)
  %37 = icmp ne i32 %36, 0
  br i1 %37, label %39, label %38

38:                                               ; preds = %30
  store i32 0, ptr %6, align 4
  br label %115

39:                                               ; preds = %30
  %40 = load ptr, ptr %7, align 8, !tbaa !3
  %41 = getelementptr inbounds nuw %struct.quic_channel_st, ptr %40, i32 0, i32 12
  %42 = load ptr, ptr %41, align 8, !tbaa !112
  %43 = load ptr, ptr %7, align 8, !tbaa !3
  %44 = getelementptr inbounds nuw %struct.quic_channel_st, ptr %43, i32 0, i32 37
  %45 = call i32 @ossl_quic_tx_packetiser_set_cur_dcid(ptr noundef %42, ptr noundef %44)
  %46 = icmp ne i32 %45, 0
  br i1 %46, label %48, label %47

47:                                               ; preds = %39
  store i32 0, ptr %6, align 4
  br label %115

48:                                               ; preds = %39
  %49 = load ptr, ptr %7, align 8, !tbaa !3
  %50 = getelementptr inbounds nuw %struct.quic_channel_st, ptr %49, i32 0, i32 12
  %51 = load ptr, ptr %50, align 8, !tbaa !112
  %52 = load ptr, ptr %7, align 8, !tbaa !3
  %53 = getelementptr inbounds nuw %struct.quic_channel_st, ptr %52, i32 0, i32 36
  %54 = call i32 @ossl_quic_tx_packetiser_set_cur_scid(ptr noundef %51, ptr noundef %53)
  %55 = icmp ne i32 %54, 0
  br i1 %55, label %57, label %56

56:                                               ; preds = %48
  store i32 0, ptr %6, align 4
  br label %115

57:                                               ; preds = %48
  %58 = load ptr, ptr %7, align 8, !tbaa !3
  %59 = getelementptr inbounds nuw %struct.quic_channel_st, ptr %58, i32 0, i32 25
  %60 = load ptr, ptr %59, align 8, !tbaa !74
  %61 = load ptr, ptr %7, align 8, !tbaa !3
  call void @ossl_qtx_set_qlog_cb(ptr noundef %60, ptr noundef @ch_get_qlog_cb, ptr noundef %61)
  %62 = load ptr, ptr %7, align 8, !tbaa !3
  %63 = getelementptr inbounds nuw %struct.quic_channel_st, ptr %62, i32 0, i32 12
  %64 = load ptr, ptr %63, align 8, !tbaa !112
  %65 = load ptr, ptr %7, align 8, !tbaa !3
  call void @ossl_quic_tx_packetiser_set_qlog_cb(ptr noundef %64, ptr noundef @ch_get_qlog_cb, ptr noundef %65)
  %66 = load ptr, ptr %7, align 8, !tbaa !3
  %67 = getelementptr inbounds nuw %struct.quic_channel_st, ptr %66, i32 0, i32 0
  %68 = load ptr, ptr %67, align 8, !tbaa !8
  %69 = getelementptr inbounds nuw %struct.quic_port_st, ptr %68, i32 0, i32 0
  %70 = load ptr, ptr %69, align 8, !tbaa !48
  %71 = getelementptr inbounds nuw %struct.quic_engine_st, ptr %70, i32 0, i32 0
  %72 = load ptr, ptr %71, align 8, !tbaa !58
  %73 = load ptr, ptr %7, align 8, !tbaa !3
  %74 = getelementptr inbounds nuw %struct.quic_channel_st, ptr %73, i32 0, i32 0
  %75 = load ptr, ptr %74, align 8, !tbaa !8
  %76 = getelementptr inbounds nuw %struct.quic_port_st, ptr %75, i32 0, i32 0
  %77 = load ptr, ptr %76, align 8, !tbaa !48
  %78 = getelementptr inbounds nuw %struct.quic_engine_st, ptr %77, i32 0, i32 1
  %79 = load ptr, ptr %78, align 8, !tbaa !214
  %80 = load ptr, ptr %7, align 8, !tbaa !3
  %81 = getelementptr inbounds nuw %struct.quic_channel_st, ptr %80, i32 0, i32 32
  %82 = load ptr, ptr %7, align 8, !tbaa !3
  %83 = getelementptr inbounds nuw %struct.quic_channel_st, ptr %82, i32 0, i32 26
  %84 = load ptr, ptr %83, align 8, !tbaa !119
  %85 = load ptr, ptr %7, align 8, !tbaa !3
  %86 = getelementptr inbounds nuw %struct.quic_channel_st, ptr %85, i32 0, i32 25
  %87 = load ptr, ptr %86, align 8, !tbaa !74
  %88 = call i32 @ossl_quic_provide_initial_secret(ptr noundef %72, ptr noundef %79, ptr noundef %81, i32 noundef 1, ptr noundef %84, ptr noundef %87)
  %89 = icmp ne i32 %88, 0
  br i1 %89, label %91, label %90

90:                                               ; preds = %57
  store i32 0, ptr %6, align 4
  br label %115

91:                                               ; preds = %57
  %92 = load ptr, ptr %7, align 8, !tbaa !3
  %93 = getelementptr inbounds nuw %struct.quic_channel_st, ptr %92, i32 0, i32 5
  %94 = load ptr, ptr %93, align 8, !tbaa !45
  %95 = load ptr, ptr %7, align 8, !tbaa !3
  %96 = load ptr, ptr %11, align 8, !tbaa !215
  %97 = icmp eq ptr %96, null
  br i1 %97, label %98, label %101

98:                                               ; preds = %91
  %99 = load ptr, ptr %7, align 8, !tbaa !3
  %100 = getelementptr inbounds nuw %struct.quic_channel_st, ptr %99, i32 0, i32 32
  br label %103

101:                                              ; preds = %91
  %102 = load ptr, ptr %11, align 8, !tbaa !215
  br label %103

103:                                              ; preds = %101, %98
  %104 = phi ptr [ %100, %98 ], [ %102, %101 ]
  %105 = call i32 @ossl_quic_lcidm_enrol_odcid(ptr noundef %94, ptr noundef %95, ptr noundef %104)
  %106 = icmp ne i32 %105, 0
  br i1 %106, label %108, label %107

107:                                              ; preds = %103
  store i32 0, ptr %6, align 4
  br label %115

108:                                              ; preds = %103
  %109 = load ptr, ptr %7, align 8, !tbaa !3
  call void @ch_record_state_transition(ptr noundef %109, i32 noundef 1)
  %110 = load ptr, ptr %7, align 8, !tbaa !3
  %111 = getelementptr inbounds nuw %struct.quic_channel_st, ptr %110, i32 0, i32 72
  %112 = load i64, ptr %111, align 8
  %113 = and i64 %112, -65
  %114 = or i64 %113, 0
  store i64 %114, ptr %111, align 8
  store i32 1, ptr %6, align 4
  br label %115

115:                                              ; preds = %108, %107, %90, %56, %47, %38
  %116 = load i32, ptr %6, align 4
  ret i32 %116
}