; Function Attrs: nounwind uwtable
define internal fastcc range(i32 0, 2) i32 @ch_on_new_conn_common(ptr noundef initializes((104, 216), (1144, 1166), (1249, 1270)) %0, ptr noundef readonly captures(none) %1, ptr noundef readonly captures(none) %2, ptr noundef readonly captures(none) %3, ptr noundef %4) unnamed_addr #0 {
  %6 = alloca %struct.qlog_trace_info_st, align 8
  %7 = getelementptr inbounds nuw i8, ptr %0, i64 104
  tail call void @llvm.memcpy.p0.p0.i64(ptr noundef nonnull align 8 dereferenceable(112) %7, ptr noundef nonnull align 4 dereferenceable(112) %1, i64 112, i1 false), !tbaa.struct !172
  %8 = getelementptr inbounds nuw i8, ptr %0, i64 1144
  tail call void @llvm.memcpy.p0.p0.i64(ptr noundef nonnull align 8 dereferenceable(21) %8, ptr noundef nonnull align 1 dereferenceable(21) %3, i64 21, i1 false), !tbaa.struct !85
  %9 = getelementptr inbounds nuw i8, ptr %0, i64 1249
  tail call void @llvm.memcpy.p0.p0.i64(ptr noundef nonnull align 1 dereferenceable(21) %9, ptr noundef nonnull align 1 dereferenceable(21) %2, i64 21, i1 false), !tbaa.struct !85
  %10 = getelementptr inbounds nuw i8, ptr %0, i64 1165
  store i8 0, ptr %10, align 1, !tbaa !228
  %.not = icmp eq ptr %4, null
  br i1 %.not, label %12, label %11

11:                                               ; preds = %5
  tail call void @llvm.memcpy.p0.p0.i64(ptr noundef nonnull align 1 dereferenceable(21) %10, ptr noundef nonnull align 1 dereferenceable(21) %4, i64 21, i1 false), !tbaa.struct !85
  br label %12

12:                                               ; preds = %11, %5
  %13 = getelementptr inbounds nuw i8, ptr %0, i64 216
  %14 = load ptr, ptr %13, align 8, !tbaa !109
  %15 = tail call i32 @ossl_quic_tx_packetiser_set_peer(ptr noundef %14, ptr noundef nonnull %7) #15
  %.not33 = icmp eq i32 %15, 0
  br i1 %.not33, label %81, label %16

16:                                               ; preds = %12
  %17 = load ptr, ptr %13, align 8, !tbaa !109
  %18 = tail call i32 @ossl_quic_tx_packetiser_set_cur_dcid(ptr noundef %17, ptr noundef nonnull %9) #15
  %.not34 = icmp eq i32 %18, 0
  br i1 %.not34, label %81, label %19

19:                                               ; preds = %16
  %20 = load ptr, ptr %13, align 8, !tbaa !109
  %21 = getelementptr inbounds nuw i8, ptr %0, i64 1228
  %22 = tail call i32 @ossl_quic_tx_packetiser_set_cur_scid(ptr noundef %20, ptr noundef nonnull %21) #15
  %.not35 = icmp eq i32 %22, 0
  br i1 %.not35, label %81, label %23

23:                                               ; preds = %19
  %24 = getelementptr inbounds nuw i8, ptr %0, i64 1056
  %25 = load ptr, ptr %24, align 8, !tbaa !72
  tail call void @ossl_qtx_set_qlog_cb(ptr noundef %25, ptr noundef nonnull @ch_get_qlog_cb, ptr noundef nonnull %0) #15
  %26 = load ptr, ptr %13, align 8, !tbaa !109
  tail call void @ossl_quic_tx_packetiser_set_qlog_cb(ptr noundef %26, ptr noundef nonnull @ch_get_qlog_cb, ptr noundef nonnull %0) #15
  %27 = load ptr, ptr %0, align 8, !tbaa !3
  %28 = load ptr, ptr %27, align 8, !tbaa !46
  %29 = load ptr, ptr %28, align 8, !tbaa !56
  %30 = getelementptr inbounds nuw i8, ptr %28, i64 8
  %31 = load ptr, ptr %30, align 8, !tbaa !201
  %32 = getelementptr inbounds nuw i8, ptr %0, i64 1064
  %33 = load ptr, ptr %32, align 8, !tbaa !116
  %34 = load ptr, ptr %24, align 8, !tbaa !72
  %35 = tail call i32 @ossl_quic_provide_initial_secret(ptr noundef %29, ptr noundef %31, ptr noundef nonnull %8, i32 noundef 1, ptr noundef %33, ptr noundef %34) #15
  %.not36 = icmp eq i32 %35, 0
  br i1 %.not36, label %81, label %36

36:                                               ; preds = %23
  %37 = getelementptr inbounds nuw i8, ptr %0, i64 56
  %38 = load ptr, ptr %37, align 8, !tbaa !44
  %39 = select i1 %.not, ptr %8, ptr %4
  %40 = tail call i32 @ossl_quic_lcidm_enrol_odcid(ptr noundef %38, ptr noundef nonnull %0, ptr noundef nonnull %39) #15
  %.not37 = icmp eq i32 %40, 0
  br i1 %.not37, label %81, label %41

41:                                               ; preds = %36
  %42 = getelementptr inbounds nuw i8, ptr %0, i64 1568
  %43 = load i64, ptr %42, align 8
  %44 = and i64 %43, -8
  %45 = or disjoint i64 %44, 1
  store i64 %45, ptr %42, align 8
  call void @llvm.lifetime.start.p0(i64 88, ptr nonnull %6) #15
  %46 = getelementptr inbounds nuw i8, ptr %6, i64 16
  call void @llvm.memset.p0.i64(ptr noundef nonnull align 8 dereferenceable(88) %46, i8 0, i64 72, i1 false)
  %47 = getelementptr inbounds nuw i8, ptr %0, i64 72
  %48 = load ptr, ptr %47, align 8, !tbaa !171
  %.not.i.i = icmp eq ptr %48, null
  br i1 %.not.i.i, label %49, label %ch_record_state_transition.exit

49:                                               ; preds = %41
  %50 = and i64 %43, 2199023255552
  %.not15.i.i = icmp eq i64 %50, 0
  br i1 %.not15.i.i, label %ch_record_state_transition.exit, label %51

51:                                               ; preds = %49
  %52 = and i64 %43, 33554432
  %.not16.i.i = icmp eq i64 %52, 0
  br i1 %.not16.i.i, label %56, label %53

53:                                               ; preds = %51
  %54 = load i8, ptr %8, align 8, !tbaa !179
  %55 = icmp eq i8 %54, 0
  br i1 %55, label %ch_record_state_transition.exit, label %56

56:                                               ; preds = %53, %51
  call void @llvm.memcpy.p0.p0.i64(ptr noundef nonnull align 8 dereferenceable(21) %6, ptr noundef nonnull align 8 dereferenceable(21) %8, i64 21, i1 false), !tbaa.struct !85
  %57 = getelementptr inbounds nuw i8, ptr %0, i64 1600
  %58 = load ptr, ptr %57, align 8, !tbaa !161
  %59 = getelementptr inbounds nuw i8, ptr %6, i64 24
  store ptr %58, ptr %59, align 8, !tbaa !180
  %60 = getelementptr inbounds nuw i8, ptr %6, i64 32
  %61 = trunc i64 %43 to i32
  %62 = lshr i32 %61, 25
  %63 = and i32 %62, 1
  %64 = getelementptr inbounds nuw i8, ptr %6, i64 48
  call void @llvm.memset.p0.i64(ptr noundef nonnull align 8 dereferenceable(16) %60, i8 0, i64 16, i1 false)
  store i32 %63, ptr %64, align 8, !tbaa !182
  %65 = getelementptr inbounds nuw i8, ptr %6, i64 56
  store ptr @get_time, ptr %65, align 8, !tbaa !183
  %66 = getelementptr inbounds nuw i8, ptr %6, i64 64
  store ptr %0, ptr %66, align 8, !tbaa !184
  %67 = call ptr @ossl_qlog_new_from_env(ptr noundef nonnull %6) #15
  store ptr %67, ptr %47, align 8, !tbaa !171
  %68 = icmp eq ptr %67, null
  %.pre.i = load i64, ptr %42, align 8
  br i1 %68, label %69, label %ch_record_state_transition.exit

69:                                               ; preds = %56
  %70 = and i64 %.pre.i, -2199023255553
  store i64 %70, ptr %42, align 8
  br label %ch_record_state_transition.exit

ch_record_state_transition.exit:                  ; preds = %41, %49, %53, %56, %69
  %71 = phi i64 [ %70, %69 ], [ %45, %41 ], [ %45, %49 ], [ %45, %53 ], [ %.pre.i, %56 ]
  %.0.i.i = phi ptr [ null, %69 ], [ %48, %41 ], [ null, %49 ], [ null, %53 ], [ %67, %56 ]
  %72 = trunc i64 %43 to i32
  %73 = and i32 %72, 7
  call void @llvm.lifetime.end.p0(i64 88, ptr nonnull %6) #15
  %74 = trunc i64 %71 to i32
  %75 = lshr i32 %74, 9
  %76 = and i32 %75, 1
  %77 = lshr i32 %74, 10
  %78 = and i32 %77, 1
  call void @ossl_qlog_event_connectivity_connection_state_updated(ptr noundef %.0.i.i, i32 noundef %73, i32 noundef 1, i32 noundef %76, i32 noundef %78) #15
  %79 = load i64, ptr %42, align 8
  %80 = and i64 %79, -65
  store i64 %80, ptr %42, align 8
  br label %81

81:                                               ; preds = %36, %23, %19, %16, %12, %ch_record_state_transition.exit
  %.0 = phi i32 [ 1, %ch_record_state_transition.exit ], [ 0, %12 ], [ 0, %16 ], [ 0, %19 ], [ 0, %23 ], [ 0, %36 ]
  ret i32 %.0
}